; Function Attrs: mustprogress sspstrong uwtable
define void @_ZN3tbb6detail2r131thread_request_serializer_proxy29disable_mandatory_concurrencyERNS0_2d114rw_scoped_lockINS3_8rw_mutexEEE(ptr noundef nonnull align 8 dereferenceable(64) %0, ptr noundef nonnull align 8 captures(none) dereferenceable(9) %1) local_unnamed_addr #1 align 2 personality ptr @__gxx_personality_v0 {
  %3 = alloca %"class.tbb::detail::d1::unique_scoped_lock", align 8
  %4 = getelementptr inbounds nuw i8, ptr %1, i64 8
  %5 = load i8, ptr %4, align 8, !tbaa !37, !range !41, !noundef !42
  %6 = trunc nuw i8 %5 to i1
  br i1 %6, label %_ZN3tbb6detail2d114rw_scoped_lockINS1_8rw_mutexEE17upgrade_to_writerEv.exit, label %7

7:                                                ; preds = %2
  store i8 1, ptr %4, align 8, !tbaa !37
  %8 = load ptr, ptr %1, align 8, !tbaa !40
  %9 = tail call noundef zeroext i1 @_ZN3tbb6detail2d18rw_mutex7upgradeEv(ptr noundef nonnull align 8 dereferenceable(8) %8)
  br label %_ZN3tbb6detail2d114rw_scoped_lockINS1_8rw_mutexEE17upgrade_to_writerEv.exit

_ZN3tbb6detail2d114rw_scoped_lockINS1_8rw_mutexEE17upgrade_to_writerEv.exit: ; preds = %2, %7
  %10 = getelementptr inbounds nuw i8, ptr %0, i64 8
  %11 = load atomic i32, ptr %10 monotonic, align 8
  %12 = icmp slt i32 %11, 1
  br i1 %12, label %13, label %.critedge

13:                                               ; preds = %_ZN3tbb6detail2d114rw_scoped_lockINS1_8rw_mutexEE17upgrade_to_writerEv.exit
  %14 = getelementptr inbounds nuw i8, ptr %0, i64 12
  %15 = load i8, ptr %14, align 4, !tbaa !31, !range !41, !noundef !42
  %16 = trunc nuw i8 %15 to i1
  br i1 %16, label %17, label %.critedge

17:                                               ; preds = %13
  %18 = getelementptr inbounds nuw i8, ptr %0, i64 32
  %19 = load i32, ptr %18, align 8, !tbaa !10
  %.not = icmp eq i32 %19, 0
  br i1 %.not, label %.critedge, label %20

20:                                               ; preds = %17
  store i8 0, ptr %14, align 4, !tbaa !31
  call void @llvm.lifetime.start.p0(i64 8, ptr nonnull %3) #11
  %21 = getelementptr inbounds nuw i8, ptr %0, i64 48
  store ptr null, ptr %3, align 8, !tbaa !27
  call void @_ZN3tbb6detail2d118unique_scoped_lockINS1_5mutexEE7acquireERS3_(ptr noundef nonnull align 8 dereferenceable(8) %3, ptr noundef nonnull align 1 dereferenceable(1) %21)
  %22 = load i32, ptr %18, align 8, !tbaa !10
  %23 = getelementptr inbounds nuw i8, ptr %0, i64 36
  %24 = load atomic i32, ptr %23 monotonic, align 4
  %..i.i.i = call noundef i32 @llvm.smin.i32(i32 %24, i32 0)
  %..i1.i.i = call noundef i32 @llvm.smin.i32(i32 %24, i32 %22)
  %25 = sub nsw i32 %..i.i.i, %..i1.i.i
  %26 = getelementptr inbounds nuw i8, ptr %0, i64 24
  %27 = load ptr, ptr %26, align 8, !tbaa !30
  invoke void @_ZN3tbb6detail2r117thread_dispatcher25adjust_job_count_estimateEi(ptr noundef nonnull align 8 dereferenceable(152) %27, i32 noundef %25)
          to label %28 unwind label %35

28:                                               ; preds = %20
  store i32 0, ptr %18, align 8, !tbaa !10
  %29 = load ptr, ptr %3, align 8, !tbaa !27
  %.not.i.i = icmp eq ptr %29, null
  br i1 %.not.i.i, label %_ZN3tbb6detail2r125thread_request_serializer22set_active_num_workersEi.exit, label %30

30:                                               ; preds = %28
  %31 = atomicrmw xchg ptr %29, i8 0 seq_cst, align 1
  invoke void @_ZN3tbb6detail2r121notify_by_address_oneEPv(ptr noundef nonnull align 1 dereferenceable(1) %29)
          to label %_ZN3tbb6detail2r125thread_request_serializer22set_active_num_workersEi.exit unwind label %32

32:                                               ; preds = %30
  %33 = landingpad { ptr, i32 }
          catch ptr null
  %34 = extractvalue { ptr, i32 } %33, 0
  call void @__clang_call_terminate(ptr %34) #14
  unreachable

35:                                               ; preds = %20
  %36 = landingpad { ptr, i32 }
          cleanup
  call void @_ZN3tbb6detail2d118unique_scoped_lockINS1_5mutexEED2Ev(ptr noundef nonnull align 8 dereferenceable(8) %3) #11
  call void @llvm.lifetime.end.p0(i64 8, ptr nonnull %3) #11
  resume { ptr, i32 } %36

_ZN3tbb6detail2r125thread_request_serializer22set_active_num_workersEi.exit: ; preds = %28, %30
  call void @llvm.lifetime.end.p0(i64 8, ptr nonnull %3) #11
  br label %.critedge

.critedge:                                        ; preds = %13, %_ZN3tbb6detail2d114rw_scoped_lockINS1_8rw_mutexEE17upgrade_to_writerEv.exit, %_ZN3tbb6detail2r125thread_request_serializer22set_active_num_workersEi.exit, %17
  ret void
}